target datalayout = "e-m:e-p270:32:32-p271:32:32-p272:64:64-i64:64-i128:128-f80:128-n8:16:32:64-S128"
target triple = "x86_64-pc-linux-gnu"

%struct._zend_signal_globals_t = type { i32, i32, i32, i32, i8, i8, [65 x %struct._zend_signal_entry_t], [64 x %struct._zend_signal_queue_t], ptr, ptr, ptr }
%struct._zend_signal_entry_t = type { i32, ptr }
%struct._zend_signal_queue_t = type { %struct._zend_signal_t, ptr }
%struct._zend_signal_t = type { i32, ptr, ptr }
%struct.__sigset_t = type { [16 x i64] }
%struct.sigaction = type { %union.anon, %struct.__sigset_t, i32, ptr }
%union.anon = type { ptr }

@zend_signal_globals = global %struct._zend_signal_globals_t zeroinitializer, align 8
@zend_sigs = internal constant [7 x i32] [i32 27, i32 1, i32 2, i32 3, i32 15, i32 10, i32 12], align 16
@.str.1 = private unnamed_addr constant [56 x i8] c"zend_signal: shutdown with non-zero blocking depth (%d)\00", align 1
@.str.2 = private unnamed_addr constant [64 x i8] c"zend_signal: handler was replaced for signal (%d) after startup\00", align 1

; Function Attrs: nounwind uwtable
define hidden void @zend_signal_deactivate() #0 {
  %1 = alloca i64, align 8
  %2 = alloca %struct.sigaction, align 8
  %3 = load i8, ptr getelementptr inbounds (%struct._zend_signal_globals_t, ptr @zend_signal_globals, i32 0, i32 4), align 8
  %4 = trunc i8 %3 to i1
  br i1 %4, label %5, label %35

5:                                                ; preds = %0
  %6 = load i32, ptr @zend_signal_globals, align 8
  %7 = icmp ne i32 %6, 0
  br i1 %7, label %8, label %10

8:                                                ; preds = %5
  %9 = load i32, ptr @zend_signal_globals, align 8
  call void (i32, ptr, ...) @zend_error(i32 noundef 32, ptr noundef @.str.1, i32 noundef %9)
  br label %10

10:                                               ; preds = %8, %5
  store i64 0, ptr %1, align 8
  br label %11

11:                                               ; preds = %31, %10
  %12 = load i64, ptr %1, align 8
  %13 = icmp ult i64 %12, 7
  br i1 %13, label %14, label %34

14:                                               ; preds = %11
  %15 = load i64, ptr %1, align 8
  %16 = getelementptr inbounds [7 x i32], ptr @zend_sigs, i64 0, i64 %15
  %17 = load i32, ptr %16, align 4
  %18 = call i32 @sigaction(i32 noundef %17, ptr noundef null, ptr noundef %2) #8
  %19 = getelementptr inbounds %struct.sigaction, ptr %2, i32 0, i32 0
  %20 = load ptr, ptr %19, align 8
  %21 = icmp ne ptr %20, @zend_signal_handler_defer
  br i1 %21, label %22, label %30

22:                                               ; preds = %14
  %23 = getelementptr inbounds %struct.sigaction, ptr %2, i32 0, i32 0
  %24 = load ptr, ptr %23, align 8
  %25 = icmp ne ptr %24, inttoptr (i64 1 to ptr)
  br i1 %25, label %26, label %30

26:                                               ; preds = %22
  %27 = load i64, ptr %1, align 8
  %28 = getelementptr inbounds [7 x i32], ptr @zend_sigs, i64 0, i64 %27
  %29 = load i32, ptr %28, align 4
  call void (i32, ptr, ...) @zend_error(i32 noundef 32, ptr noundef @.str.2, i32 noundef %29)
  br label %30

30:                                               ; preds = %26, %22, %14
  br label %31

31:                                               ; preds = %30
  %32 = load i64, ptr %1, align 8
  %33 = add i64 %32, 1
  store i64 %33, ptr %1, align 8
  br label %11

34:                                               ; preds = %11
  br label %35

35:                                               ; preds = %34, %0
  store volatile i32 0, ptr getelementptr inbounds (%struct._zend_signal_globals_t, ptr @zend_signal_globals, i32 0, i32 3), align 4
  store i32 0, ptr getelementptr inbounds (%struct._zend_signal_globals_t, ptr @zend_signal_globals, i32 0, i32 2), align 8
  store i32 0, ptr getelementptr inbounds (%struct._zend_signal_globals_t, ptr @zend_signal_globals, i32 0, i32 1), align 4
  store i32 0, ptr @zend_signal_globals, align 8
  %36 = load ptr, ptr getelementptr inbounds (%struct._zend_signal_globals_t, ptr @zend_signal_globals, i32 0, i32 8), align 8
  %37 = icmp ne ptr %36, null
  br i1 %37, label %38, label %46

38:                                               ; preds = %35
  %39 = load ptr, ptr getelementptr inbounds (%struct._zend_signal_globals_t, ptr @zend_signal_globals, i32 0, i32 9), align 8
  %40 = icmp ne ptr %39, null
  br i1 %40, label %41, label %46

41:                                               ; preds = %38
  %42 = load ptr, ptr getelementptr inbounds (%struct._zend_signal_globals_t, ptr @zend_signal_globals, i32 0, i32 10), align 8
  %43 = load ptr, ptr getelementptr inbounds (%struct._zend_signal_globals_t, ptr @zend_signal_globals, i32 0, i32 9), align 8
  %44 = getelementptr inbounds %struct._zend_signal_queue_t, ptr %43, i32 0, i32 1
  store ptr %42, ptr %44, align 8
  %45 = load ptr, ptr getelementptr inbounds (%struct._zend_signal_globals_t, ptr @zend_signal_globals, i32 0, i32 8), align 8
  store ptr %45, ptr getelementptr inbounds (%struct._zend_signal_globals_t, ptr @zend_signal_globals, i32 0, i32 10), align 8
  store ptr null, ptr getelementptr inbounds (%struct._zend_signal_globals_t, ptr @zend_signal_globals, i32 0, i32 8), align 8
  store ptr null, ptr getelementptr inbounds (%struct._zend_signal_globals_t, ptr @zend_signal_globals, i32 0, i32 9), align 8
  br label %46

46:                                               ; preds = %41, %38, %35
  ret void
}