; Function Attrs: nounwind uwtable
define hidden void @zend_signal_deactivate() local_unnamed_addr #0 {
  %1 = alloca %struct.sigaction, align 8
  %2 = load i8, ptr getelementptr inbounds (%struct._zend_signal_globals_t, ptr @zend_signal_globals, i64 0, i32 4), align 8
  %3 = and i8 %2, 1
  %.not = icmp eq i8 %3, 0
  br i1 %.not, label %.loopexit, label %4

4:                                                ; preds = %0
  %5 = load i32, ptr @zend_signal_globals, align 8
  %.not10 = icmp eq i32 %5, 0
  br i1 %.not10, label %.preheader, label %6

6:                                                ; preds = %4
  tail call void (i32, ptr, ...) @zend_error(i32 noundef 32, ptr noundef nonnull @.str.1, i32 noundef %5) #9
  br label %.preheader

.preheader:                                       ; preds = %6, %4
  br label %7

7:                                                ; preds = %.preheader, %15
  %.011 = phi i64 [ %16, %15 ], [ 0, %.preheader ]
  %8 = getelementptr inbounds [7 x i32], ptr @zend_sigs, i64 0, i64 %.011
  %9 = load i32, ptr %8, align 4
  %10 = call i32 @sigaction(i32 noundef %9, ptr noundef null, ptr noundef nonnull %1) #9
  %11 = load ptr, ptr %1, align 8
  %12 = icmp ne ptr %11, @zend_signal_handler_defer
  %13 = icmp ne ptr %11, inttoptr (i64 1 to ptr)
  %or.cond = and i1 %12, %13
  br i1 %or.cond, label %14, label %15

14:                                               ; preds = %7
  call void (i32, ptr, ...) @zend_error(i32 noundef 32, ptr noundef nonnull @.str.2, i32 noundef %9) #9
  br label %15

15:                                               ; preds = %7, %14
  %16 = add nuw nsw i64 %.011, 1
  %exitcond.not = icmp eq i64 %16, 7
  br i1 %exitcond.not, label %.loopexit, label %7

.loopexit:                                        ; preds = %15, %0
  store volatile i32 0, ptr getelementptr inbounds (%struct._zend_signal_globals_t, ptr @zend_signal_globals, i64 0, i32 3), align 4
  store i32 0, ptr getelementptr inbounds (%struct._zend_signal_globals_t, ptr @zend_signal_globals, i64 0, i32 2), align 8
  store i32 0, ptr getelementptr inbounds (%struct._zend_signal_globals_t, ptr @zend_signal_globals, i64 0, i32 1), align 4
  store i32 0, ptr @zend_signal_globals, align 8
  %17 = load ptr, ptr getelementptr inbounds (%struct._zend_signal_globals_t, ptr @zend_signal_globals, i64 0, i32 8), align 8
  %18 = icmp ne ptr %17, null
  %19 = load ptr, ptr getelementptr inbounds (%struct._zend_signal_globals_t, ptr @zend_signal_globals, i64 0, i32 9), align 8
  %20 = icmp ne ptr %19, null
  %or.cond4 = select i1 %18, i1 %20, i1 false
  br i1 %or.cond4, label %21, label %25

21:                                               ; preds = %.loopexit
  %22 = load ptr, ptr getelementptr inbounds (%struct._zend_signal_globals_t, ptr @zend_signal_globals, i64 0, i32 10), align 8
  %23 = getelementptr inbounds i8, ptr %19, i64 24
  store ptr %22, ptr %23, align 8
  %24 = load ptr, ptr getelementptr inbounds (%struct._zend_signal_globals_t, ptr @zend_signal_globals, i64 0, i32 8), align 8
  store ptr %24, ptr getelementptr inbounds (%struct._zend_signal_globals_t, ptr @zend_signal_globals, i64 0, i32 10), align 8
  call void @llvm.memset.p0.i64(ptr noundef nonnull align 8 dereferenceable(16) getelementptr inbounds (%struct._zend_signal_globals_t, ptr @zend_signal_globals, i64 0, i32 8), i8 0, i64 16, i1 false)
  br label %25

25:                                               ; preds = %21, %.loopexit
  ret void
}